; Function Attrs: nounwind uwtable
define i32 @X509_CRL_set1_lastUpdate(ptr noundef %0, ptr noundef %1) local_unnamed_addr #0 {
  %3 = icmp eq ptr %0, null
  %4 = icmp eq ptr %1, null
  %or.cond = or i1 %3, %4
  br i1 %or.cond, label %9, label %5

5:                                                ; preds = %2
  %6 = getelementptr inbounds nuw i8, ptr %0, i64 80
  %7 = getelementptr inbounds nuw i8, ptr %0, i64 32
  %8 = tail call i32 @ossl_x509_set1_time(ptr noundef nonnull %6, ptr noundef nonnull %7, ptr noundef nonnull %1) #6
  br label %9

9:                                                ; preds = %2, %5
  %.0 = phi i32 [ %8, %5 ], [ 0, %2 ]
  ret i32 %.0
}